Certificate:
    Data:
        Version: 3 (0x2)
        Serial Number: 808822083 (0x3035a543)
        Signature Algorithm: sha256WithRSAEncryption
        Issuer: C = kr, O = yessign, OU = AccreditedCA, CN = yessignCA Class 3
        Validity
            Not Before: Feb 13 15:00:00 2023 GMT
            Not After : Mar 11 14:59:59 2024 GMT
        Subject: C = kr, O = yessign, OU = corporation, OU = IBK, OU = 00654, CN = (\EC\A3\BC)\EC\9D\B4\EC\A7\80\EC\BC\90\ED\85\8D(00654)0003023201803061128857
        Subject Public Key Info:
            Public Key Algorithm: rsaEncryption
                RSA Public-Key: (2048 bit)
                Modulus:
                    00:b4:e4:58:bd:69:06:cb:ff:bb:40:23:36:b3:bd:
                    7b:e2:f2:87:ba:a1:66:99:f0:01:d1:e4:df:d0:a9:
                    85:d3:6f:6d:45:60:e8:b1:70:a7:aa:e0:fb:e0:c1:
                    63:29:20:26:42:e6:98:dd:b4:19:b1:43:1b:66:0f:
                    d8:96:5a:49:cd:98:87:a3:d1:ce:17:67:91:10:11:
                    f3:b0:cb:74:4c:ad:85:47:a1:78:d9:7a:eb:52:40:
                    4d:b7:a9:5d:00:12:34:22:91:08:50:c8:23:4a:c9:
                    00:6f:2e:4e:aa:f7:04:95:90:15:6f:2f:ee:7e:51:
                    85:7e:da:89:5b:bc:24:4e:28:37:56:e1:77:b9:55:
                    27:a8:04:2c:70:17:18:45:aa:10:74:a6:98:dd:c5:
                    5d:a0:81:7e:36:2e:00:e2:be:c2:63:c7:bd:fb:a6:
                    ad:bb:b2:d0:82:9a:22:ad:2b:04:6a:6c:a5:b0:57:
                    ca:57:33:4c:41:cc:13:fc:47:a2:19:9f:1d:36:9f:
                    d7:29:a9:da:b8:ae:77:1a:2e:8a:5e:c9:57:f0:97:
                    dc:a8:4a:94:a9:09:5e:65:5c:e0:fa:0c:52:b0:d4:
                    bf:9a:47:a6:34:b6:3a:2f:08:10:5b:ef:c5:b2:e3:
                    ed:6f:f4:01:53:33:88:89:16:48:4d:d7:b9:90:13:
                    79:65
                Exponent: 65537 (0x10001)
        X509v3 extensions:
            X509v3 Authority Key Identifier: 
                keyid:F2:87:A3:E6:D9:5E:16:16:72:4E:D8:C2:BC:85:39:03:37:59:90:C4
                DirName:/C=KR/O=KISA/OU=Korea Certification Authority Central/CN=KISA RootCA 4
                serial:10:28

            X509v3 Subject Key Identifier: 
                40:FD:0F:11:9A:69:1A:3C:B7:5F:39:51:12:8D:1A:CE:D5:2B:3E:00
            X509v3 Key Usage: critical
                Digital Signature, Non Repudiation
            X509v3 Certificate Policies: critical
                Policy: 1.2.410.200005.1.1.2
                  User Notice:
                    Explicit Text: Çt
                  CPS: http://www.yessign.or.kr/cps.htm

            X509v3 Subject Alternative Name: 
                othername:<unsupported>
            X509v3 CRL Distribution Points: 

                Full Name:
                  URI:ldap://ds.yessign.or.kr:389/ou=dp6p8190,ou=AccreditedCA,o=yessign,c=kr?certificateRevocationList

            Authority Information Access: 
                OCSP - URI:http://ocsp.yessign.org:4612

    Signature Algorithm: sha256WithRSAEncryption
         5f:a7:17:3e:42:76:64:31:43:9a:c6:fd:d0:fe:3c:e7:3b:b0:
         27:9f:27:fb:f9:f3:c4:bf:cf:b3:4c:aa:00:0e:f6:9c:cb:2b:
         48:ae:2e:74:31:b9:bf:ad:ce:6c:ad:63:17:b2:c9:5a:3f:1e:
         08:5c:d9:21:53:fb:a7:25:c4:7d:b2:79:8d:5c:b2:0d:b1:99:
         9c:a7:a7:21:c6:c5:cd:a4:45:c2:8a:d1:19:99:e4:e8:8c:76:
         d7:41:ad:30:a2:01:fc:b9:6c:59:0c:b5:9f:65:a3:dc:29:89:
         91:23:7b:ae:e4:03:f8:0c:9e:cb:89:66:04:a5:b4:25:25:a8:
         2a:82:54:c5:91:3a:7f:b9:01:71:09:e5:a8:5f:f5:01:15:dd:
         4c:68:6c:8d:47:64:44:f5:a6:c2:22:1f:46:62:c1:66:fc:ba:
         5c:c0:c5:7d:b8:17:d9:80:a1:84:7d:7e:f4:ad:37:90:a2:f4:
         1d:ee:6a:46:77:35:ef:83:1b:23:69:70:42:2a:97:64:27:ea:
         1c:2a:74:d1:b5:99:d0:64:87:8b:b3:b8:ca:ed:2a:4d:1e:24:
         a3:87:d5:93:86:9f:23:49:f4:9a:11:03:27:78:6d:7a:fc:7f:
         ff:67:f5:31:8b:53:d8:9f:7e:6d:38:21:0c:1d:79:f2:a1:e5:
         bf:0c:37:37
-----BEGIN CERTIFICATE-----
MIIF0jCCBLqgAwIBAgIEMDWlQzANBgkqhkiG9w0BAQsFADBSMQswCQYDVQQGEwJr
cjEQMA4GA1UECgwHeWVzc2lnbjEVMBMGA1UECwwMQWNjcmVkaXRlZENBMRowGAYD
VQQDDBF5ZXNzaWduQ0EgQ2xhc3MgMzAeFw0yMzAyMTMxNTAwMDBaFw0yNDAzMTEx
NDU5NTlaMIGMMQswCQYDVQQGEwJrcjEQMA4GA1UECgwHeWVzc2lnbjEUMBIGA1UE
CwwLY29ycG9yYXRpb24xDDAKBgNVBAsMA0lCSzEOMAwGA1UECwwFMDA2NTQxNzA1
BgNVBAMMLijso7wp7J207KeA7LyQ7YWNKDAwNjU0KTAwMDMwMjMyMDE4MDMwNjEx
Mjg4NTcwggEiMA0GCSqGSIb3DQEBAQUAA4IBDwAwggEKAoIBAQC05Fi9aQbL/7tA
IzazvXvi8oe6oWaZ8AHR5N/QqYXTb21FYOixcKeq4PvgwWMpICZC5pjdtBmxQxtm
D9iWWknNmIej0c4XZ5EQEfOwy3RMrYVHoXjZeutSQE23qV0AEjQikQhQyCNKyQBv
Lk6q9wSVkBVvL+5+UYV+2olbvCROKDdW4Xe5VSeoBCxwFxhFqhB0ppjdxV2ggX42
LgDivsJjx737pq27stCCmiKtKwRqbKWwV8pXM0xBzBP8R6IZnx02n9cpqdq4rnca
LopeyVfwl9yoSpSpCV5lXOD6DFKw1L+aR6Y0tjovCBBb78Wy4+1v9AFTM4iJFkhN
17mQE3llAgMBAAGjggJzMIICbzCBjwYDVR0jBIGHMIGEgBTyh6Pm2V4WFnJO2MK8
hTkDN1mQxKFopGYwZDELMAkGA1UEBhMCS1IxDTALBgNVBAoMBEtJU0ExLjAsBgNV
BAsMJUtvcmVhIENlcnRpZmljYXRpb24gQXV0aG9yaXR5IENlbnRyYWwxFjAUBgNV
BAMMDUtJU0EgUm9vdENBIDSCAhAoMB0GA1UdDgQWBBRA/Q8RmmkaPLdfOVESjRrO
1Ss+ADAOBgNVHQ8BAf8EBAMCBsAwgYwGA1UdIAEB/wSBgTB/MH0GCSqDGoyaRQEB
AjBwMEAGCCsGAQUFBwICMDQeMsd0ACDHeMmdwRyylAAgrgjHNaywyBzG0MXQwRwA
ILwcrgnVXAAgx3jJncEcx4WyyLLkMCwGCCsGAQUFBwIBFiBodHRwOi8vd3d3Lnll
c3NpZ24ub3Iua3IvY3BzLmh0bTBwBgNVHREEaTBnoGUGCSqDGoyaRAoBAaBYMFYM
ESjso7wp7J207KeA7LyQ7YWNMEEwPwYKKoMajJpECgEBATAxMAsGCWCGSAFlAwQC
AaAiBCD+lGcjI3qmIQk1NUoupiXhS8sGBc7qukwiGNiIceVWHzBxBgNVHR8EajBo
MGagZKBihmBsZGFwOi8vZHMueWVzc2lnbi5vci5rcjozODkvb3U9ZHA2cDgxOTAs
b3U9QWNjcmVkaXRlZENBLG89eWVzc2lnbixjPWtyP2NlcnRpZmljYXRlUmV2b2Nh
dGlvbkxpc3QwOAYIKwYBBQUHAQEELDAqMCgGCCsGAQUFBzABhhxodHRwOi8vb2Nz
cC55ZXNzaWduLm9yZzo0NjEyMA0GCSqGSIb3DQEBCwUAA4IBAQBfpxc+QnZkMUOa
xv3Q/jznO7Annyf7+fPEv8+zTKoADvacyytIri50Mbm/rc5srWMXsslaPx4IXNkh
U/unJcR9snmNXLINsZmcp6chxsXNpEXCitEZmeTojHbXQa0wogH8uWxZDLWfZaPc
KYmRI3uu5AP4DJ7LiWYEpbQlJagqglTFkTp/uQFxCeWoX/UBFd1MaGyNR2RE9abC
Ih9GYsFm/LpcwMV9uBfZgKGEfX70rTeQovQd7mpGdzXvgxsjaXBCKpdkJ+ocKnTR
tZnQZIeLs7jK7SpNHiSjh9WThp8jSfSaEQMneG16/H//Z/Uxi1PYn35tOCEMHXny
oeW/DDc3
-----END CERTIFICATE-----
